target datalayout = "e-m:e-p270:32:32-p271:32:32-p272:64:64-i64:64-i128:128-f80:128-n8:16:32:64-S128"
target triple = "x86_64-pc-linux-gnu"

; Function Attrs: alwaysinline nounwind uwtable
define internal i32 @bytestream_get_le16(ptr noundef %0) #5 {
  %2 = alloca ptr, align 8
  store ptr %0, ptr %2, align 8, !tbaa !89
  %3 = load ptr, ptr %2, align 8, !tbaa !89
  %4 = load ptr, ptr %3, align 8, !tbaa !55
  %5 = getelementptr inbounds i8, ptr %4, i64 2
  store ptr %5, ptr %3, align 8, !tbaa !55
  %6 = load ptr, ptr %2, align 8, !tbaa !89
  %7 = load ptr, ptr %6, align 8, !tbaa !55
  %8 = getelementptr inbounds i8, ptr %7, i64 -2
  %9 = load i16, ptr %8, align 1, !tbaa !37
  %10 = zext i16 %9 to i32
  ret i32 %10
}

; Function Attrs: nounwind uwtable
define internal i32 @mszh_decomp(ptr noundef %0, i32 noundef %1, ptr noundef %2, i32 noundef %3) #1 {
  %5 = alloca ptr, align 8
  %6 = alloca i32, align 4
  %7 = alloca ptr, align 8
  %8 = alloca i32, align 4
  %9 = alloca ptr, align 8
  %10 = alloca ptr, align 8
  %11 = alloca ptr, align 8
  %12 = alloca i32, align 4
  %13 = alloca i32, align 4
  %14 = alloca i32, align 4
  %15 = alloca i32, align 4
  store ptr %0, ptr %5, align 8, !tbaa !55
  store i32 %1, ptr %6, align 4, !tbaa !33
  store ptr %2, ptr %7, align 8, !tbaa !55
  store i32 %3, ptr %8, align 4, !tbaa !33
  call void @llvm.lifetime.start.p0(i64 8, ptr %9) #7
  %16 = load ptr, ptr %7, align 8, !tbaa !55
  store ptr %16, ptr %9, align 8, !tbaa !55
  call void @llvm.lifetime.start.p0(i64 8, ptr %10) #7
  %17 = load ptr, ptr %7, align 8, !tbaa !55
  %18 = load i32, ptr %8, align 4, !tbaa !33
  %19 = zext i32 %18 to i64
  %20 = getelementptr inbounds nuw i8, ptr %17, i64 %19
  store ptr %20, ptr %10, align 8, !tbaa !55
  call void @llvm.lifetime.start.p0(i64 8, ptr %11) #7
  %21 = load ptr, ptr %5, align 8, !tbaa !55
  %22 = load i32, ptr %6, align 4, !tbaa !33
  %23 = sext i32 %22 to i64
  %24 = getelementptr inbounds i8, ptr %21, i64 %23
  store ptr %24, ptr %11, align 8, !tbaa !55
  call void @llvm.lifetime.start.p0(i64 4, ptr %12) #7
  %25 = load ptr, ptr %5, align 8, !tbaa !55
  %26 = getelementptr inbounds nuw i8, ptr %25, i32 1
  store ptr %26, ptr %5, align 8, !tbaa !55
  %27 = load i8, ptr %25, align 1, !tbaa !37
  %28 = zext i8 %27 to i32
  store i32 %28, ptr %12, align 4, !tbaa !33
  call void @llvm.lifetime.start.p0(i64 4, ptr %13) #7
  store i32 128, ptr %13, align 4, !tbaa !33
  br label %29

29:                                               ; preds = %156, %4
  %30 = load ptr, ptr %5, align 8, !tbaa !55
  %31 = load ptr, ptr %11, align 8, !tbaa !55
  %32 = icmp ult ptr %30, %31
  br i1 %32, label %33, label %37

33:                                               ; preds = %29
  %34 = load ptr, ptr %7, align 8, !tbaa !55
  %35 = load ptr, ptr %10, align 8, !tbaa !55
  %36 = icmp ult ptr %34, %35
  br label %37

37:                                               ; preds = %33, %29
  %38 = phi i1 [ false, %29 ], [ %36, %33 ]
  br i1 %38, label %39, label %157

39:                                               ; preds = %37
  %40 = load i32, ptr %12, align 4, !tbaa !33
  %41 = load i32, ptr %13, align 4, !tbaa !33
  %42 = and i32 %40, %41
  %43 = icmp ne i32 %42, 0
  br i1 %43, label %51, label %44

44:                                               ; preds = %39
  %45 = load ptr, ptr %7, align 8, !tbaa !55
  %46 = load ptr, ptr %5, align 8, !tbaa !55
  call void @llvm.memcpy.p0.p0.i64(ptr align 1 %45, ptr align 1 %46, i64 4, i1 false)
  %47 = load ptr, ptr %7, align 8, !tbaa !55
  %48 = getelementptr inbounds i8, ptr %47, i64 4
  store ptr %48, ptr %7, align 8, !tbaa !55
  %49 = load ptr, ptr %5, align 8, !tbaa !55
  %50 = getelementptr inbounds i8, ptr %49, i64 4
  store ptr %50, ptr %5, align 8, !tbaa !55
  br label %115

51:                                               ; preds = %39
  call void @llvm.lifetime.start.p0(i64 4, ptr %14) #7
  %52 = call i32 @bytestream_get_le16(ptr noundef %5)
  store i32 %52, ptr %14, align 4, !tbaa !33
  call void @llvm.lifetime.start.p0(i64 4, ptr %15) #7
  %53 = load i32, ptr %14, align 4, !tbaa !33
  %54 = lshr i32 %53, 11
  %55 = add i32 %54, 1
  store i32 %55, ptr %15, align 4, !tbaa !33
  %56 = load i32, ptr %14, align 4, !tbaa !33
  %57 = and i32 %56, 2047
  store i32 %57, ptr %14, align 4, !tbaa !33
  %58 = load i32, ptr %14, align 4, !tbaa !33
  %59 = zext i32 %58 to i64
  %60 = load ptr, ptr %7, align 8, !tbaa !55
  %61 = load ptr, ptr %9, align 8, !tbaa !55
  %62 = ptrtoint ptr %60 to i64
  %63 = ptrtoint ptr %61 to i64
  %64 = sub i64 %62, %63
  %65 = icmp sgt i64 %59, %64
  br i1 %65, label %66, label %72

66:                                               ; preds = %51
  %67 = load ptr, ptr %7, align 8, !tbaa !55
  %68 = load ptr, ptr %9, align 8, !tbaa !55
  %69 = ptrtoint ptr %67 to i64
  %70 = ptrtoint ptr %68 to i64
  %71 = sub i64 %69, %70
  br label %75

72:                                               ; preds = %51
  %73 = load i32, ptr %14, align 4, !tbaa !33
  %74 = zext i32 %73 to i64
  br label %75

75:                                               ; preds = %72, %66
  %76 = phi i64 [ %71, %66 ], [ %74, %72 ]
  %77 = trunc i64 %76 to i32
  store i32 %77, ptr %14, align 4, !tbaa !33
  %78 = load i32, ptr %15, align 4, !tbaa !33
  %79 = mul i32 %78, 4
  store i32 %79, ptr %15, align 4, !tbaa !33
  %80 = load i32, ptr %15, align 4, !tbaa !33
  %81 = zext i32 %80 to i64
  %82 = load ptr, ptr %10, align 8, !tbaa !55
  %83 = load ptr, ptr %7, align 8, !tbaa !55
  %84 = ptrtoint ptr %82 to i64
  %85 = ptrtoint ptr %83 to i64
  %86 = sub i64 %84, %85
  %87 = icmp sgt i64 %81, %86
  br i1 %87, label %88, label %94

88:                                               ; preds = %75
  %89 = load ptr, ptr %10, align 8, !tbaa !55
  %90 = load ptr, ptr %7, align 8, !tbaa !55
  %91 = ptrtoint ptr %89 to i64
  %92 = ptrtoint ptr %90 to i64
  %93 = sub i64 %91, %92
  br label %97

94:                                               ; preds = %75
  %95 = load i32, ptr %15, align 4, !tbaa !33
  %96 = zext i32 %95 to i64
  br label %97

97:                                               ; preds = %94, %88
  %98 = phi i64 [ %93, %88 ], [ %96, %94 ]
  %99 = trunc i64 %98 to i32
  store i32 %99, ptr %15, align 4, !tbaa !33
  %100 = load i32, ptr %14, align 4, !tbaa !33
  %101 = icmp ne i32 %100, 0
  br i1 %101, label %102, label %106

102:                                              ; preds = %97
  %103 = load ptr, ptr %7, align 8, !tbaa !55
  %104 = load i32, ptr %14, align 4, !tbaa !33
  %105 = load i32, ptr %15, align 4, !tbaa !33
  call void @av_memcpy_backptr(ptr noundef %103, i32 noundef %104, i32 noundef %105)
  br label %110

106:                                              ; preds = %97
  %107 = load ptr, ptr %7, align 8, !tbaa !55
  %108 = load i32, ptr %15, align 4, !tbaa !33
  %109 = zext i32 %108 to i64
  call void @llvm.memset.p0.i64(ptr align 1 %107, i8 0, i64 %109, i1 false)
  br label %110

110:                                              ; preds = %106, %102
  %111 = load i32, ptr %15, align 4, !tbaa !33
  %112 = load ptr, ptr %7, align 8, !tbaa !55
  %113 = zext i32 %111 to i64
  %114 = getelementptr inbounds nuw i8, ptr %112, i64 %113
  store ptr %114, ptr %7, align 8, !tbaa !55
  call void @llvm.lifetime.end.p0(i64 4, ptr %15) #7
  call void @llvm.lifetime.end.p0(i64 4, ptr %14) #7
  br label %115

115:                                              ; preds = %110, %44
  %116 = load i32, ptr %13, align 4, !tbaa !33
  %117 = lshr i32 %116, 1
  store i32 %117, ptr %13, align 4, !tbaa !33
  %118 = load i32, ptr %13, align 4, !tbaa !33
  %119 = icmp ne i32 %118, 0
  br i1 %119, label %156, label %120

120:                                              ; preds = %115
  %121 = load ptr, ptr %5, align 8, !tbaa !55
  %122 = getelementptr inbounds nuw i8, ptr %121, i32 1
  store ptr %122, ptr %5, align 8, !tbaa !55
  %123 = load i8, ptr %121, align 1, !tbaa !37
  %124 = zext i8 %123 to i32
  store i32 %124, ptr %12, align 4, !tbaa !33
  br label %125

125:                                              ; preds = %144, %120
  %126 = load i32, ptr %12, align 4, !tbaa !33
  %127 = icmp ne i32 %126, 0
  %128 = xor i1 %127, true
  br i1 %128, label %129, label %155

129:                                              ; preds = %125
  %130 = load ptr, ptr %10, align 8, !tbaa !55
  %131 = load ptr, ptr %7, align 8, !tbaa !55
  %132 = ptrtoint ptr %130 to i64
  %133 = ptrtoint ptr %131 to i64
  %134 = sub i64 %132, %133
  %135 = icmp slt i64 %134, 32
  br i1 %135, label %143, label %136

136:                                              ; preds = %129
  %137 = load ptr, ptr %11, align 8, !tbaa !55
  %138 = load ptr, ptr %5, align 8, !tbaa !55
  %139 = ptrtoint ptr %137 to i64
  %140 = ptrtoint ptr %138 to i64
  %141 = sub i64 %139, %140
  %142 = icmp slt i64 %141, 32
  br i1 %142, label %143, label %144

143:                                              ; preds = %136, %129
  br label %155

144:                                              ; preds = %136
  %145 = load ptr, ptr %7, align 8, !tbaa !55
  %146 = load ptr, ptr %5, align 8, !tbaa !55
  call void @llvm.memcpy.p0.p0.i64(ptr align 1 %145, ptr align 1 %146, i64 32, i1 false)
  %147 = load ptr, ptr %7, align 8, !tbaa !55
  %148 = getelementptr inbounds i8, ptr %147, i64 32
  store ptr %148, ptr %7, align 8, !tbaa !55
  %149 = load ptr, ptr %5, align 8, !tbaa !55
  %150 = getelementptr inbounds i8, ptr %149, i64 32
  store ptr %150, ptr %5, align 8, !tbaa !55
  %151 = load ptr, ptr %5, align 8, !tbaa !55
  %152 = getelementptr inbounds nuw i8, ptr %151, i32 1
  store ptr %152, ptr %5, align 8, !tbaa !55
  %153 = load i8, ptr %151, align 1, !tbaa !37
  %154 = zext i8 %153 to i32
  store i32 %154, ptr %12, align 4, !tbaa !33
  br label %125, !llvm.loop !80

155:                                              ; preds = %143, %125
  store i32 128, ptr %13, align 4, !tbaa !33
  br label %156

156:                                              ; preds = %155, %115
  br label %29, !llvm.loop !81

157:                                              ; preds = %37
  %158 = load ptr, ptr %7, align 8, !tbaa !55
  %159 = load ptr, ptr %9, align 8, !tbaa !55
  %160 = ptrtoint ptr %158 to i64
  %161 = ptrtoint ptr %159 to i64
  %162 = sub i64 %160, %161
  %163 = trunc i64 %162 to i32
  call void @llvm.lifetime.end.p0(i64 4, ptr %13) #7
  call void @llvm.lifetime.end.p0(i64 4, ptr %12) #7
  call void @llvm.lifetime.end.p0(i64 8, ptr %11) #7
  call void @llvm.lifetime.end.p0(i64 8, ptr %10) #7
  call void @llvm.lifetime.end.p0(i64 8, ptr %9) #7
  ret i32 %163
}