; Function Attrs: nounwind uwtable
define internal fastcc i32 @mszh_decomp(ptr noundef %0, i32 noundef %1, ptr noundef %2, i32 noundef %3) unnamed_addr #1 {
  %5 = zext i32 %3 to i64
  %6 = getelementptr inbounds nuw i8, ptr %2, i64 %5
  %7 = sext i32 %1 to i64
  %8 = getelementptr inbounds i8, ptr %0, i64 %7
  %9 = icmp sgt i32 %1, 1
  %10 = icmp ne i32 %3, 0
  %11 = and i1 %9, %10
  br i1 %11, label %.lr.ph82, label %.._crit_edge_crit_edge

.._crit_edge_crit_edge:                           ; preds = %4
  %.pre88 = ptrtoint ptr %2 to i64
  br label %._crit_edge

.lr.ph82:                                         ; preds = %4
  %12 = getelementptr inbounds nuw i8, ptr %0, i64 1
  %13 = load i8, ptr %0, align 1, !tbaa !32
  %14 = zext i8 %13 to i32
  %15 = ptrtoint ptr %2 to i64
  %16 = ptrtoint ptr %6 to i64
  %17 = ptrtoint ptr %8 to i64
  br label %18

18:                                               ; preds = %.lr.ph82, %.loopexit
  %.081 = phi i32 [ 128, %.lr.ph82 ], [ %.1, %.loopexit ]
  %.04380 = phi i32 [ %14, %.lr.ph82 ], [ %.144, %.loopexit ]
  %.04579 = phi ptr [ %2, %.lr.ph82 ], [ %.247, %.loopexit ]
  %.06478 = phi ptr [ %12, %.lr.ph82 ], [ %.266, %.loopexit ]
  %19 = and i32 %.081, %.04380
  %.not = icmp eq i32 %19, 0
  br i1 %.not, label %20, label %24

20:                                               ; preds = %18
  %21 = load i32, ptr %.06478, align 1
  store i32 %21, ptr %.04579, align 1
  %22 = getelementptr inbounds nuw i8, ptr %.04579, i64 4
  %23 = getelementptr inbounds nuw i8, ptr %.06478, i64 4
  br label %46

24:                                               ; preds = %18
  %25 = getelementptr inbounds nuw i8, ptr %.06478, i64 2
  %26 = load i16, ptr %.06478, align 1, !tbaa !32
  %27 = zext i16 %26 to i32
  %28 = and i32 %27, 2047
  %29 = zext nneg i32 %28 to i64
  %30 = ptrtoint ptr %.04579 to i64
  %31 = sub i64 %30, %15
  %32 = tail call i64 @llvm.smin.i64(i64 %31, i64 %29)
  %33 = trunc i64 %32 to i32
  %34 = lshr i32 %27, 9
  %35 = and i32 %34, 124
  %36 = add nuw nsw i32 %35, 4
  %37 = zext nneg i32 %36 to i64
  %38 = sub i64 %16, %30
  %39 = tail call i64 @llvm.smin.i64(i64 %38, i64 %37)
  %.not53 = icmp eq i32 %33, 0
  br i1 %.not53, label %42, label %40

40:                                               ; preds = %24
  %41 = trunc i64 %39 to i32
  tail call void @av_memcpy_backptr(ptr noundef %.04579, i32 noundef %33, i32 noundef %41) #7
  %.pre = and i64 %39, 4294967295
  br label %44

42:                                               ; preds = %24
  %43 = and i64 %39, 4294967295
  tail call void @llvm.memset.p0.i64(ptr align 1 %.04579, i8 0, i64 %43, i1 false)
  br label %44

44:                                               ; preds = %42, %40
  %.pre-phi = phi i64 [ %43, %42 ], [ %.pre, %40 ]
  %45 = getelementptr inbounds nuw i8, ptr %.04579, i64 %.pre-phi
  br label %46

46:                                               ; preds = %44, %20
  %.165 = phi ptr [ %23, %20 ], [ %25, %44 ]
  %.146 = phi ptr [ %22, %20 ], [ %45, %44 ]
  %47 = lshr i32 %.081, 1
  %.not54 = icmp ult i32 %.081, 2
  br i1 %.not54, label %48, label %.loopexit

48:                                               ; preds = %46
  %49 = getelementptr inbounds nuw i8, ptr %.165, i64 1
  %.2.in71 = load i8, ptr %.165, align 1, !tbaa !32
  %.not5572 = icmp ne i8 %.2.in71, 0
  %50 = ptrtoint ptr %.146 to i64
  %51 = sub i64 %16, %50
  %52 = icmp slt i64 %51, 32
  %or.cond73 = select i1 %.not5572, i1 true, i1 %52
  br i1 %or.cond73, label %.loopexit.split.loop.exit67, label %.lr.ph

.lr.ph:                                           ; preds = %48, %56
  %.375 = phi ptr [ %57, %56 ], [ %.146, %48 ]
  %storemerge74 = phi ptr [ %59, %56 ], [ %49, %48 ]
  %53 = ptrtoint ptr %storemerge74 to i64
  %54 = sub i64 %17, %53
  %55 = icmp slt i64 %54, 32
  br i1 %55, label %.loopexit, label %56

56:                                               ; preds = %.lr.ph
  tail call void @llvm.memcpy.p0.p0.i64(ptr noundef nonnull align 1 dereferenceable(32) %.375, ptr noundef nonnull align 1 dereferenceable(32) %storemerge74, i64 32, i1 false)
  %57 = getelementptr inbounds nuw i8, ptr %.375, i64 32
  %58 = getelementptr inbounds nuw i8, ptr %storemerge74, i64 32
  %59 = getelementptr inbounds nuw i8, ptr %storemerge74, i64 33
  %.2.in = load i8, ptr %58, align 1, !tbaa !32
  %.not55 = icmp ne i8 %.2.in, 0
  %60 = ptrtoint ptr %57 to i64
  %61 = sub i64 %16, %60
  %62 = icmp slt i64 %61, 32
  %or.cond = select i1 %.not55, i1 true, i1 %62
  br i1 %or.cond, label %.loopexit.split.loop.exit67, label %.lr.ph, !llvm.loop !48

.loopexit.split.loop.exit67:                      ; preds = %56, %48
  %.2.in.lcssa = phi i8 [ %.2.in71, %48 ], [ %.2.in, %56 ]
  %storemerge.lcssa.ph68 = phi ptr [ %49, %48 ], [ %59, %56 ]
  %.3.lcssa.ph69 = phi ptr [ %.146, %48 ], [ %57, %56 ]
  %.2.le = zext i8 %.2.in.lcssa to i32
  br label %.loopexit

.loopexit:                                        ; preds = %.lr.ph, %.loopexit.split.loop.exit67, %46
  %.266 = phi ptr [ %.165, %46 ], [ %storemerge.lcssa.ph68, %.loopexit.split.loop.exit67 ], [ %storemerge74, %.lr.ph ]
  %.247 = phi ptr [ %.146, %46 ], [ %.3.lcssa.ph69, %.loopexit.split.loop.exit67 ], [ %.375, %.lr.ph ]
  %.144 = phi i32 [ %.04380, %46 ], [ %.2.le, %.loopexit.split.loop.exit67 ], [ 0, %.lr.ph ]
  %.1 = phi i32 [ %47, %46 ], [ 128, %.loopexit.split.loop.exit67 ], [ 128, %.lr.ph ]
  %63 = icmp ult ptr %.266, %8
  %64 = icmp ult ptr %.247, %6
  %65 = select i1 %63, i1 %64, i1 false
  br i1 %65, label %18, label %._crit_edge.loopexit, !llvm.loop !50

._crit_edge.loopexit:                             ; preds = %.loopexit
  %.pre90 = ptrtoint ptr %.247 to i64
  br label %._crit_edge

._crit_edge:                                      ; preds = %.._crit_edge_crit_edge, %._crit_edge.loopexit
  %.pre-phi91 = phi i64 [ %.pre88, %.._crit_edge_crit_edge ], [ %.pre90, %._crit_edge.loopexit ]
  %.pre-phi89 = phi i64 [ %.pre88, %.._crit_edge_crit_edge ], [ %15, %._crit_edge.loopexit ]
  %66 = sub i64 %.pre-phi91, %.pre-phi89
  %67 = trunc i64 %66 to i32
  ret i32 %67
}